target datalayout = "e-m:e-p270:32:32-p271:32:32-p272:64:64-i64:64-i128:128-f80:128-n8:16:32:64-S128"
target triple = "x86_64-pc-linux-gnu"

%struct.evthread_lock_callbacks = type { i32, i32, ptr, ptr, ptr, ptr }
%struct.event_base = type { ptr, ptr, %struct.event_changelist, ptr, %struct.evsig_info, i32, i32, i32, i32, i32, i32, i32, i32, i32, i32, i32, i32, ptr, i32, %struct.evcallback_list, ptr, i32, i32, %struct.event_signal_map, %struct.event_signal_map, %struct.min_heap, %struct.timeval, %struct.evutil_monotonic_timer, %struct.timeval, i64, i64, ptr, ptr, i32, ptr, i32, %struct.timeval, i32, i32, i32, [2 x i32], %struct.event, ptr, %struct.evutil_weakrand_state, %struct.once_event_list, [2 x %struct.evwatch_list] }
%struct.event_changelist = type { ptr, i32, i32 }
%struct.evsig_info = type { %struct.event, [2 x i32], i32, i32, [65 x ptr], ptr, i32 }
%struct.evcallback_list = type { ptr, ptr }
%struct.event_signal_map = type { ptr, i32 }
%struct.min_heap = type { ptr, i64, i64 }
%struct.evutil_monotonic_timer = type { i32, %struct.timeval, %struct.timeval }
%struct.timeval = type { i64, i64 }
%struct.event = type { %struct.event_callback, %union.anon.0, i32, i16, i16, ptr, %union.anon.2, %struct.timeval }
%struct.event_callback = type { %struct.anon, i16, i8, i8, %union.anon, ptr }
%struct.anon = type { ptr, ptr }
%union.anon = type { ptr }
%union.anon.0 = type { %struct.anon.1 }
%struct.anon.1 = type { ptr, ptr }
%union.anon.2 = type { %struct.anon.3 }
%struct.anon.3 = type { %struct.anon.4, %struct.timeval }
%struct.anon.4 = type { ptr, ptr }
%struct.evutil_weakrand_state = type { i32 }
%struct.once_event_list = type { ptr }
%struct.evwatch_list = type { ptr, ptr }

@evthread_lock_fns_ = external global %struct.evthread_lock_callbacks, align 8
@evsig_cb.signals = internal global [1024 x i8] zeroinitializer, align 16
@.str.7 = private unnamed_addr constant [9 x i8] c"%s: recv\00", align 1
@__func__.evsig_cb = private unnamed_addr constant [9 x i8] c"evsig_cb\00", align 1

; Function Attrs: nounwind uwtable
define internal void @evsig_cb(i32 noundef %0, i16 noundef signext %1, ptr noundef %2) #0 {
  %4 = alloca i32, align 4
  %5 = alloca i16, align 2
  %6 = alloca ptr, align 8
  %7 = alloca i64, align 8
  %8 = alloca i32, align 4
  %9 = alloca [65 x i32], align 16
  %10 = alloca ptr, align 8
  %11 = alloca i32, align 4
  %12 = alloca i8, align 1
  store i32 %0, ptr %4, align 4
  store i16 %1, ptr %5, align 2
  store ptr %2, ptr %6, align 8
  call void @llvm.lifetime.start.p0(i64 8, ptr %7) #8
  call void @llvm.lifetime.start.p0(i64 4, ptr %8) #8
  call void @llvm.lifetime.start.p0(i64 260, ptr %9) #8
  call void @llvm.lifetime.start.p0(i64 8, ptr %10) #8
  %13 = load ptr, ptr %6, align 8
  store ptr %13, ptr %10, align 8
  call void @llvm.memset.p0.i64(ptr align 16 %9, i8 0, i64 260, i1 false)
  br label %14

14:                                               ; preds = %60, %3
  br label %15

15:                                               ; preds = %14
  %16 = load i32, ptr %4, align 4
  %17 = call i64 @read(i32 noundef %16, ptr noundef @evsig_cb.signals, i64 noundef 1024)
  store i64 %17, ptr %7, align 8
  %18 = load i64, ptr %7, align 8
  %19 = icmp eq i64 %18, -1
  br i1 %19, label %20, label %31

20:                                               ; preds = %15
  call void @llvm.lifetime.start.p0(i64 4, ptr %11) #8
  %21 = call ptr @__errno_location() #9
  %22 = load i32, ptr %21, align 4
  store i32 %22, ptr %11, align 4
  %23 = load i32, ptr %11, align 4
  %24 = icmp eq i32 %23, 4
  br i1 %24, label %30, label %25

25:                                               ; preds = %20
  %26 = load i32, ptr %11, align 4
  %27 = icmp eq i32 %26, 11
  br i1 %27, label %30, label %28

28:                                               ; preds = %25
  %29 = load i32, ptr %4, align 4
  call void (i32, i32, ptr, ...) @event_sock_err(i32 noundef 1, i32 noundef %29, ptr noundef @.str.7, ptr noundef @__func__.evsig_cb) #7
  unreachable

30:                                               ; preds = %25, %20
  call void @llvm.lifetime.end.p0(i64 4, ptr %11) #8
  br label %61

31:                                               ; preds = %15
  %32 = load i64, ptr %7, align 8
  %33 = icmp eq i64 %32, 0
  br i1 %33, label %34, label %35

34:                                               ; preds = %31
  br label %61

35:                                               ; preds = %31
  br label %36

36:                                               ; preds = %35
  store i32 0, ptr %8, align 4
  br label %37

37:                                               ; preds = %57, %36
  %38 = load i32, ptr %8, align 4
  %39 = sext i32 %38 to i64
  %40 = load i64, ptr %7, align 8
  %41 = icmp slt i64 %39, %40
  br i1 %41, label %42, label %60

42:                                               ; preds = %37
  call void @llvm.lifetime.start.p0(i64 1, ptr %12) #8
  %43 = load i32, ptr %8, align 4
  %44 = sext i32 %43 to i64
  %45 = getelementptr inbounds [1024 x i8], ptr @evsig_cb.signals, i64 0, i64 %44
  %46 = load i8, ptr %45, align 1
  store i8 %46, ptr %12, align 1
  %47 = load i8, ptr %12, align 1
  %48 = zext i8 %47 to i32
  %49 = icmp slt i32 %48, 65
  br i1 %49, label %50, label %56

50:                                               ; preds = %42
  %51 = load i8, ptr %12, align 1
  %52 = zext i8 %51 to i64
  %53 = getelementptr inbounds nuw [65 x i32], ptr %9, i64 0, i64 %52
  %54 = load i32, ptr %53, align 4
  %55 = add nsw i32 %54, 1
  store i32 %55, ptr %53, align 4
  br label %56

56:                                               ; preds = %50, %42
  call void @llvm.lifetime.end.p0(i64 1, ptr %12) #8
  br label %57

57:                                               ; preds = %56
  %58 = load i32, ptr %8, align 4
  %59 = add nsw i32 %58, 1
  store i32 %59, ptr %8, align 4
  br label %37, !llvm.loop !3

60:                                               ; preds = %37
  br label %14

61:                                               ; preds = %34, %30
  br label %62

62:                                               ; preds = %61
  br label %63

63:                                               ; preds = %62
  %64 = load ptr, ptr %10, align 8
  %65 = getelementptr inbounds nuw %struct.event_base, ptr %64, i32 0, i32 31
  %66 = load ptr, ptr %65, align 8
  %67 = icmp ne ptr %66, null
  br i1 %67, label %68, label %74

68:                                               ; preds = %63
  %69 = load ptr, ptr getelementptr inbounds nuw (%struct.evthread_lock_callbacks, ptr @evthread_lock_fns_, i32 0, i32 4), align 8
  %70 = load ptr, ptr %10, align 8
  %71 = getelementptr inbounds nuw %struct.event_base, ptr %70, i32 0, i32 31
  %72 = load ptr, ptr %71, align 8
  %73 = call i32 %69(i32 noundef 0, ptr noundef %72)
  br label %74

74:                                               ; preds = %68, %63
  br label %75

75:                                               ; preds = %74
  br label %76

76:                                               ; preds = %75
  br label %77

77:                                               ; preds = %76
  br label %78

78:                                               ; preds = %77
  store i32 0, ptr %8, align 4
  br label %79

79:                                               ; preds = %96, %78
  %80 = load i32, ptr %8, align 4
  %81 = icmp slt i32 %80, 65
  br i1 %81, label %82, label %99

82:                                               ; preds = %79
  %83 = load i32, ptr %8, align 4
  %84 = sext i32 %83 to i64
  %85 = getelementptr inbounds [65 x i32], ptr %9, i64 0, i64 %84
  %86 = load i32, ptr %85, align 4
  %87 = icmp ne i32 %86, 0
  br i1 %87, label %88, label %95

88:                                               ; preds = %82
  %89 = load ptr, ptr %10, align 8
  %90 = load i32, ptr %8, align 4
  %91 = load i32, ptr %8, align 4
  %92 = sext i32 %91 to i64
  %93 = getelementptr inbounds [65 x i32], ptr %9, i64 0, i64 %92
  %94 = load i32, ptr %93, align 4
  call void @evmap_signal_active_(ptr noundef %89, i32 noundef %90, i32 noundef %94)
  br label %95

95:                                               ; preds = %88, %82
  br label %96

96:                                               ; preds = %95
  %97 = load i32, ptr %8, align 4
  %98 = add nsw i32 %97, 1
  store i32 %98, ptr %8, align 4
  br label %79, !llvm.loop !5

99:                                               ; preds = %79
  br label %100

100:                                              ; preds = %99
  br label %101

101:                                              ; preds = %100
  %102 = load ptr, ptr %10, align 8
  %103 = getelementptr inbounds nuw %struct.event_base, ptr %102, i32 0, i32 31
  %104 = load ptr, ptr %103, align 8
  %105 = icmp ne ptr %104, null
  br i1 %105, label %106, label %112

106:                                              ; preds = %101
  %107 = load ptr, ptr getelementptr inbounds nuw (%struct.evthread_lock_callbacks, ptr @evthread_lock_fns_, i32 0, i32 5), align 8
  %108 = load ptr, ptr %10, align 8
  %109 = getelementptr inbounds nuw %struct.event_base, ptr %108, i32 0, i32 31
  %110 = load ptr, ptr %109, align 8
  %111 = call i32 %107(i32 noundef 0, ptr noundef %110)
  br label %112

112:                                              ; preds = %106, %101
  br label %113

113:                                              ; preds = %112
  br label %114

114:                                              ; preds = %113
  br label %115

115:                                              ; preds = %114
  br label %116

116:                                              ; preds = %115
  call void @llvm.lifetime.end.p0(i64 8, ptr %10) #8
  call void @llvm.lifetime.end.p0(i64 260, ptr %9) #8
  call void @llvm.lifetime.end.p0(i64 4, ptr %8) #8
  call void @llvm.lifetime.end.p0(i64 8, ptr %7) #8
  ret void
}