; Function Attrs: nounwind uwtable
define internal void @evsig_cb(i32 noundef %0, i16 signext %1, ptr noundef %2) #0 {
  %4 = alloca [65 x i32], align 16
  call void @llvm.lifetime.start.p0(i64 260, ptr nonnull %4) #8
  call void @llvm.memset.p0.i64(ptr noundef nonnull align 16 dereferenceable(260) %4, i8 0, i64 260, i1 false)
  br label %.loopexit

.loopexit:                                        ; preds = %.loopexit.backedge, %3
  %5 = tail call i64 @read(i32 noundef %0, ptr noundef nonnull @evsig_cb.signals, i64 noundef 1024) #8
  switch i64 %5, label %.preheader [
    i64 -1, label %7
    i64 0, label %.loopexit30
  ]

.preheader:                                       ; preds = %.loopexit
  %6 = icmp sgt i64 %5, 0
  br i1 %6, label %.lr.ph, label %.loopexit.backedge

.loopexit.backedge:                               ; preds = %19, %.preheader
  br label %.loopexit

7:                                                ; preds = %.loopexit
  %8 = tail call ptr @__errno_location() #10
  %9 = load i32, ptr %8, align 4
  switch i32 %9, label %10 [
    i32 11, label %.loopexit30
    i32 4, label %.loopexit30
  ]

10:                                               ; preds = %7
  tail call void (i32, i32, ptr, ...) @event_sock_err(i32 noundef 1, i32 noundef %0, ptr noundef nonnull @.str.7, ptr noundef nonnull @__func__.evsig_cb) #9
  unreachable

.lr.ph:                                           ; preds = %.preheader, %19
  %indvars.iv = phi i64 [ %indvars.iv.next, %19 ], [ 0, %.preheader ]
  %11 = getelementptr inbounds nuw [1024 x i8], ptr @evsig_cb.signals, i64 0, i64 %indvars.iv
  %12 = load i8, ptr %11, align 1
  %13 = icmp ult i8 %12, 65
  br i1 %13, label %14, label %19

14:                                               ; preds = %.lr.ph
  %15 = zext nneg i8 %12 to i64
  %16 = getelementptr inbounds nuw [65 x i32], ptr %4, i64 0, i64 %15
  %17 = load i32, ptr %16, align 4
  %18 = add nsw i32 %17, 1
  store i32 %18, ptr %16, align 4
  br label %19

19:                                               ; preds = %14, %.lr.ph
  %indvars.iv.next = add nuw nsw i64 %indvars.iv, 1
  %exitcond.not = icmp eq i64 %indvars.iv.next, %5
  br i1 %exitcond.not, label %.loopexit.backedge, label %.lr.ph, !llvm.loop !3

.loopexit30:                                      ; preds = %.loopexit, %7, %7
  %20 = getelementptr inbounds nuw i8, ptr %2, i64 952
  %21 = load ptr, ptr %20, align 8
  %.not = icmp eq ptr %21, null
  br i1 %.not, label %.preheader38, label %22

22:                                               ; preds = %.loopexit30
  %23 = load ptr, ptr getelementptr inbounds nuw (i8, ptr @evthread_lock_fns_, i64 24), align 8
  %24 = tail call i32 %23(i32 noundef 0, ptr noundef nonnull %21) #8
  br label %.preheader38

.preheader38:                                     ; preds = %22, %.loopexit30
  br label %25

25:                                               ; preds = %.preheader38, %30
  %indvars.iv34 = phi i64 [ %indvars.iv.next35, %30 ], [ 0, %.preheader38 ]
  %26 = getelementptr inbounds nuw [65 x i32], ptr %4, i64 0, i64 %indvars.iv34
  %27 = load i32, ptr %26, align 4
  %.not29 = icmp eq i32 %27, 0
  br i1 %.not29, label %30, label %28

28:                                               ; preds = %25
  %29 = trunc nuw nsw i64 %indvars.iv34 to i32
  tail call void @evmap_signal_active_(ptr noundef %2, i32 noundef %29, i32 noundef %27) #8
  br label %30

30:                                               ; preds = %25, %28
  %indvars.iv.next35 = add nuw nsw i64 %indvars.iv34, 1
  %exitcond37.not = icmp eq i64 %indvars.iv.next35, 65
  br i1 %exitcond37.not, label %31, label %25, !llvm.loop !5

31:                                               ; preds = %30
  %32 = load ptr, ptr %20, align 8
  %.not28 = icmp eq ptr %32, null
  br i1 %.not28, label %36, label %33

33:                                               ; preds = %31
  %34 = load ptr, ptr getelementptr inbounds nuw (i8, ptr @evthread_lock_fns_, i64 32), align 8
  %35 = tail call i32 %34(i32 noundef 0, ptr noundef nonnull %32) #8
  br label %36

36:                                               ; preds = %33, %31
  call void @llvm.lifetime.end.p0(i64 260, ptr nonnull %4) #8
  ret void
}